; Function Attrs: nounwind uwtable
define internal fastcc void @_set_highest_prio_qos_ptr(ptr noundef captures(none) %0) unnamed_addr #0 {
  %2 = getelementptr inbounds nuw i8, ptr %0, i64 760
  %3 = load ptr, ptr %2, align 8
  %.not = icmp eq ptr %3, null
  br i1 %.not, label %13, label %4

4:                                                ; preds = %1
  %5 = tail call i32 @list_count(ptr noundef nonnull %3) #15
  %.not6 = icmp eq i32 %5, 0
  br i1 %.not6, label %13, label %6

6:                                                ; preds = %4
  %7 = load ptr, ptr %2, align 8
  %8 = tail call ptr @list_peek(ptr noundef %7) #15
  %9 = getelementptr inbounds nuw i8, ptr %0, i64 768
  store ptr %8, ptr %9, align 8
  %10 = getelementptr inbounds nuw i8, ptr %8, i64 16
  %11 = load i32, ptr %10, align 8
  %12 = getelementptr inbounds nuw i8, ptr %0, i64 752
  store i32 %11, ptr %12, align 8
  br label %13

13:                                               ; preds = %1, %4, %6
  ret void
}